; Function Attrs: mustprogress uwtable
define hidden void @_ZN3smt10theory_str13push_scope_ehEv(ptr noundef nonnull align 8 dereferenceable(1800) %0) unnamed_addr #4 align 2 {
  tail call void @_ZN3smt6theory13push_scope_ehEv(ptr noundef nonnull align 8 dereferenceable(53) %0)
  %2 = getelementptr inbounds nuw i8, ptr %0, i64 1352
  %3 = getelementptr inbounds nuw i8, ptr %0, i64 1368
  tail call void @_ZN6region10push_scopeEv(ptr noundef nonnull align 8 dereferenceable(40) %3)
  %4 = getelementptr inbounds nuw i8, ptr %0, i64 1360
  %5 = load ptr, ptr %2, align 8, !tbaa !341
  %6 = icmp eq ptr %5, null
  br i1 %6, label %_ZNK6vectorIP5trailLb0EjE4sizeEv.exit.i, label %7

7:                                                ; preds = %1
  %8 = getelementptr inbounds i8, ptr %5, i64 -4
  %9 = load i32, ptr %8, align 4, !tbaa !336
  br label %_ZNK6vectorIP5trailLb0EjE4sizeEv.exit.i

_ZNK6vectorIP5trailLb0EjE4sizeEv.exit.i:          ; preds = %7, %1
  %.0.i.i = phi i32 [ %9, %7 ], [ 0, %1 ]
  %10 = load ptr, ptr %4, align 8, !tbaa !340
  %11 = icmp eq ptr %10, null
  br i1 %11, label %18, label %12

12:                                               ; preds = %_ZNK6vectorIP5trailLb0EjE4sizeEv.exit.i
  %13 = getelementptr inbounds i8, ptr %10, i64 -4
  %14 = load i32, ptr %13, align 4, !tbaa !336
  %15 = getelementptr inbounds i8, ptr %10, i64 -8
  %16 = load i32, ptr %15, align 4, !tbaa !336
  %17 = icmp eq i32 %14, %16
  br i1 %17, label %18, label %_ZN11trail_stack10push_scopeEv.exit

18:                                               ; preds = %12, %_ZNK6vectorIP5trailLb0EjE4sizeEv.exit.i
  tail call void @_ZN6vectorIjLb0EjE13expand_vectorEv(ptr noundef nonnull align 8 dereferenceable(8) %4)
  %.pre.i.i = load ptr, ptr %4, align 8, !tbaa !340
  %.phi.trans.insert.i.i = getelementptr inbounds i8, ptr %.pre.i.i, i64 -4
  %.pre2.i.i = load i32, ptr %.phi.trans.insert.i.i, align 4, !tbaa !336
  br label %_ZN11trail_stack10push_scopeEv.exit

_ZN11trail_stack10push_scopeEv.exit:              ; preds = %12, %18
  %19 = phi i32 [ %.pre2.i.i, %18 ], [ %14, %12 ]
  %20 = phi ptr [ %.pre.i.i, %18 ], [ %10, %12 ]
  %21 = getelementptr inbounds i8, ptr %20, i64 -4
  %22 = zext i32 %19 to i64
  %23 = getelementptr inbounds nuw i32, ptr %20, i64 %22
  store i32 %.0.i.i, ptr %23, align 4, !tbaa !336
  %24 = add i32 %19, 1
  store i32 %24, ptr %21, align 4, !tbaa !336
  %25 = getelementptr inbounds nuw i8, ptr %0, i64 1408
  %26 = getelementptr inbounds nuw i8, ptr %0, i64 1424
  tail call void @_ZN6region10push_scopeEv(ptr noundef nonnull align 8 dereferenceable(40) %26)
  %27 = getelementptr inbounds nuw i8, ptr %0, i64 1416
  %28 = load ptr, ptr %25, align 8, !tbaa !341
  %29 = icmp eq ptr %28, null
  br i1 %29, label %_ZNK6vectorIP5trailLb0EjE4sizeEv.exit.i1, label %30

30:                                               ; preds = %_ZN11trail_stack10push_scopeEv.exit
  %31 = getelementptr inbounds i8, ptr %28, i64 -4
  %32 = load i32, ptr %31, align 4, !tbaa !336
  br label %_ZNK6vectorIP5trailLb0EjE4sizeEv.exit.i1

_ZNK6vectorIP5trailLb0EjE4sizeEv.exit.i1:         ; preds = %30, %_ZN11trail_stack10push_scopeEv.exit
  %.0.i.i2 = phi i32 [ %32, %30 ], [ 0, %_ZN11trail_stack10push_scopeEv.exit ]
  %33 = load ptr, ptr %27, align 8, !tbaa !340
  %34 = icmp eq ptr %33, null
  br i1 %34, label %41, label %35

35:                                               ; preds = %_ZNK6vectorIP5trailLb0EjE4sizeEv.exit.i1
  %36 = getelementptr inbounds i8, ptr %33, i64 -4
  %37 = load i32, ptr %36, align 4, !tbaa !336
  %38 = getelementptr inbounds i8, ptr %33, i64 -8
  %39 = load i32, ptr %38, align 4, !tbaa !336
  %40 = icmp eq i32 %37, %39
  br i1 %40, label %41, label %_ZN11trail_stack10push_scopeEv.exit6

41:                                               ; preds = %35, %_ZNK6vectorIP5trailLb0EjE4sizeEv.exit.i1
  tail call void @_ZN6vectorIjLb0EjE13expand_vectorEv(ptr noundef nonnull align 8 dereferenceable(8) %27)
  %.pre.i.i3 = load ptr, ptr %27, align 8, !tbaa !340
  %.phi.trans.insert.i.i4 = getelementptr inbounds i8, ptr %.pre.i.i3, i64 -4
  %.pre2.i.i5 = load i32, ptr %.phi.trans.insert.i.i4, align 4, !tbaa !336
  br label %_ZN11trail_stack10push_scopeEv.exit6

_ZN11trail_stack10push_scopeEv.exit6:             ; preds = %35, %41
  %42 = phi i32 [ %.pre2.i.i5, %41 ], [ %37, %35 ]
  %43 = phi ptr [ %.pre.i.i3, %41 ], [ %33, %35 ]
  %44 = getelementptr inbounds i8, ptr %43, i64 -4
  %45 = zext i32 %42 to i64
  %46 = getelementptr inbounds nuw i32, ptr %43, i64 %45
  store i32 %.0.i.i2, ptr %46, align 4, !tbaa !336
  %47 = add i32 %42, 1
  store i32 %47, ptr %44, align 4, !tbaa !336
  %48 = getelementptr inbounds nuw i8, ptr %0, i64 232
  %49 = load i32, ptr %48, align 8, !tbaa !1179
  %50 = add nsw i32 %49, 1
  store i32 %50, ptr %48, align 8, !tbaa !1179
  %51 = getelementptr inbounds nuw i8, ptr %0, i64 1656
  tail call void @_ZN14core_hashtableIN7obj_mapI4expr7zstringE13obj_map_entryE8obj_hashINS3_8key_dataEE10default_eqIS6_EE5resetEv(ptr noundef nonnull align 8 dereferenceable(24) %51)
  ret void
}